target datalayout = "e-m:e-p270:32:32-p271:32:32-p272:64:64-i64:64-i128:128-f80:128-n8:16:32:64-S128"
target triple = "x86_64-unknown-linux-gnu"

@_ZZN8QuantLib12_GLOBAL__N_16TVTMFNEdddddddddiE3R12 = internal global double 0.000000e+00, align 8
@_ZZN8QuantLib12_GLOBAL__N_16TVTMFNEdddddddddiE3RR2 = internal global double 0.000000e+00, align 8
@_ZZN8QuantLib12_GLOBAL__N_16TVTMFNEdddddddddiE3R13 = internal global double 0.000000e+00, align 8
@_ZZN8QuantLib12_GLOBAL__N_16TVTMFNEdddddddddiE3RR3 = internal global double 0.000000e+00, align 8
@_ZZN8QuantLib12_GLOBAL__N_16TVTMFNEdddddddddiE1R = internal global double 0.000000e+00, align 8
@_ZZN8QuantLib12_GLOBAL__N_16TVTMFNEdddddddddiE2RR = internal global double 0.000000e+00, align 8
@_ZZN8QuantLib12_GLOBAL__N_15SINCSEdRdS1_E2PT = internal global double 0.000000e+00, align 8
@_ZZN8QuantLib12_GLOBAL__N_15SINCSEdRdS1_E2EE = internal global double 0.000000e+00, align 8

; Function Attrs: inlinehint mustprogress nounwind uwtable
define internal noundef double @_ZN12_GLOBAL__N_14SIGNERKdS1_(ptr noundef nonnull align 8 dereferenceable(8) %a, ptr noundef nonnull align 8 dereferenceable(8) %b) #5 {
entry:
  %retval = alloca double, align 8
  %a.addr = alloca ptr, align 8
  %b.addr = alloca ptr, align 8
  store ptr %a, ptr %a.addr, align 8, !tbaa !3
  store ptr %b, ptr %b.addr, align 8, !tbaa !3
  %0 = load ptr, ptr %b.addr, align 8, !tbaa !3
  %1 = load double, ptr %0, align 8, !tbaa !62
  %cmp = fcmp ogt double %1, 0.000000e+00
  br i1 %cmp, label %if.then, label %if.else

if.then:                                          ; preds = %entry
  %2 = load ptr, ptr %a.addr, align 8, !tbaa !3
  %3 = load double, ptr %2, align 8, !tbaa !62
  %4 = call double @llvm.fabs.f64(double %3)
  store double %4, ptr %retval, align 8
  br label %return

if.else:                                          ; preds = %entry
  %5 = load ptr, ptr %a.addr, align 8, !tbaa !3
  %6 = load double, ptr %5, align 8, !tbaa !62
  %7 = call double @llvm.fabs.f64(double %6)
  %fneg = fneg double %7
  store double %fneg, ptr %retval, align 8
  br label %return

return:                                           ; preds = %if.else, %if.then
  %8 = load double, ptr %retval, align 8
  ret double %8
}

; Function Attrs: inlinehint mustprogress nounwind uwtable
define linkonce_odr noundef double @_ZSt3powIdiEN9__gnu_cxx9__promoteIDTplcvNS1_IT_Xsr3std12__is_integerIS2_EE7__valueEE6__typeELi0EcvNS1_IT0_Xsr3std12__is_integerIS5_EE7__valueEE6__typeELi0EEXsr3std12__is_integerIS8_EE7__valueEE6__typeES2_S5_(double noundef %__x, i32 noundef %__y) #5 comdat {
entry:
  %__x.addr = alloca double, align 8
  %__y.addr = alloca i32, align 4
  store double %__x, ptr %__x.addr, align 8, !tbaa !62
  store i32 %__y, ptr %__y.addr, align 4, !tbaa !14
  %0 = load double, ptr %__x.addr, align 8, !tbaa !62
  %1 = load i32, ptr %__y.addr, align 4, !tbaa !14
  %conv = sitofp i32 %1 to double
  %call = call double @pow(double noundef %0, double noundef %conv) #11, !tbaa !14
  ret double %call
}

; Function Attrs: mustprogress nounwind uwtable
define internal void @_ZN8QuantLib12_GLOBAL__N_15SINCSEdRdS1_(double noundef %X, ptr noundef nonnull align 8 dereferenceable(8) %SX, ptr noundef nonnull align 8 dereferenceable(8) %CS) #1 {
entry:
  %X.addr = alloca double, align 8
  %SX.addr = alloca ptr, align 8
  %CS.addr = alloca ptr, align 8
  %ref.tmp = alloca double, align 8
  store double %X, ptr %X.addr, align 8, !tbaa !62
  store ptr %SX, ptr %SX.addr, align 8, !tbaa !3
  store ptr %CS, ptr %CS.addr, align 8, !tbaa !3
  store double 0x3FF921FB54442D18, ptr @_ZZN8QuantLib12_GLOBAL__N_15SINCSEdRdS1_E2PT, align 8, !tbaa !62
  %0 = load double, ptr @_ZZN8QuantLib12_GLOBAL__N_15SINCSEdRdS1_E2PT, align 8, !tbaa !62
  %1 = load double, ptr %X.addr, align 8, !tbaa !62
  %2 = call double @llvm.fabs.f64(double %1)
  %sub = fsub double %0, %2
  %call = call noundef double @_ZSt3powIdiEN9__gnu_cxx9__promoteIDTplcvNS1_IT_Xsr3std12__is_integerIS2_EE7__valueEE6__typeELi0EcvNS1_IT0_Xsr3std12__is_integerIS5_EE7__valueEE6__typeELi0EEXsr3std12__is_integerIS8_EE7__valueEE6__typeES2_S5_(double noundef %sub, i32 noundef 2)
  store double %call, ptr @_ZZN8QuantLib12_GLOBAL__N_15SINCSEdRdS1_E2EE, align 8, !tbaa !62
  %3 = load double, ptr @_ZZN8QuantLib12_GLOBAL__N_15SINCSEdRdS1_E2EE, align 8, !tbaa !62
  %cmp = fcmp olt double %3, 5.000000e-05
  br i1 %cmp, label %if.then, label %if.else

if.then:                                          ; preds = %entry
  call void @llvm.lifetime.start.p0(i64 8, ptr %ref.tmp) #11
  %4 = load double, ptr @_ZZN8QuantLib12_GLOBAL__N_15SINCSEdRdS1_E2EE, align 8, !tbaa !62
  %5 = load double, ptr @_ZZN8QuantLib12_GLOBAL__N_15SINCSEdRdS1_E2EE, align 8, !tbaa !62
  %div = fdiv double %5, 1.200000e+01
  %sub1 = fsub double 1.000000e+00, %div
  %mul = fmul double %4, %sub1
  %div2 = fdiv double %mul, 2.000000e+00
  %sub3 = fsub double 1.000000e+00, %div2
  store double %sub3, ptr %ref.tmp, align 8, !tbaa !62
  %call4 = call noundef double @_ZN12_GLOBAL__N_14SIGNERKdS1_(ptr noundef nonnull align 8 dereferenceable(8) %ref.tmp, ptr noundef nonnull align 8 dereferenceable(8) %X.addr)
  %6 = load ptr, ptr %SX.addr, align 8, !tbaa !3
  store double %call4, ptr %6, align 8, !tbaa !62
  call void @llvm.lifetime.end.p0(i64 8, ptr %ref.tmp) #11
  %7 = load double, ptr @_ZZN8QuantLib12_GLOBAL__N_15SINCSEdRdS1_E2EE, align 8, !tbaa !62
  %8 = load double, ptr @_ZZN8QuantLib12_GLOBAL__N_15SINCSEdRdS1_E2EE, align 8, !tbaa !62
  %9 = load double, ptr @_ZZN8QuantLib12_GLOBAL__N_15SINCSEdRdS1_E2EE, align 8, !tbaa !62
  %mul5 = fmul double 2.000000e+00, %9
  %div6 = fdiv double %mul5, 1.500000e+01
  %sub7 = fsub double 1.000000e+00, %div6
  %mul8 = fmul double %8, %sub7
  %div9 = fdiv double %mul8, 3.000000e+00
  %sub10 = fsub double 1.000000e+00, %div9
  %mul11 = fmul double %7, %sub10
  %10 = load ptr, ptr %CS.addr, align 8, !tbaa !3
  store double %mul11, ptr %10, align 8, !tbaa !62
  br label %if.end

if.else:                                          ; preds = %entry
  %11 = load double, ptr %X.addr, align 8, !tbaa !62
  %call12 = call double @sin(double noundef %11) #11, !tbaa !14
  %12 = load ptr, ptr %SX.addr, align 8, !tbaa !3
  store double %call12, ptr %12, align 8, !tbaa !62
  %13 = load ptr, ptr %SX.addr, align 8, !tbaa !3
  %14 = load double, ptr %13, align 8, !tbaa !62
  %15 = load ptr, ptr %SX.addr, align 8, !tbaa !3
  %16 = load double, ptr %15, align 8, !tbaa !62
  %neg = fneg double %14
  %17 = call double @llvm.fmuladd.f64(double %neg, double %16, double 1.000000e+00)
  %18 = load ptr, ptr %CS.addr, align 8, !tbaa !3
  store double %17, ptr %18, align 8, !tbaa !62
  br label %if.end

if.end:                                           ; preds = %if.else, %if.then
  ret void
}

; Function Attrs: mustprogress uwtable
define internal noundef double @_ZN8QuantLib12_GLOBAL__N_16TVTMFNEdddddddddi(double noundef %X, double noundef %H1, double noundef %H2, double noundef %H3, double noundef %R23, double noundef %RUA, double noundef %RUB, double noundef %AR, double noundef %RUC, i32 noundef %NUC) #2 {
entry:
  %X.addr = alloca double, align 8
  %H1.addr = alloca double, align 8
  %H2.addr = alloca double, align 8
  %H3.addr = alloca double, align 8
  %R23.addr = alloca double, align 8
  %RUA.addr = alloca double, align 8
  %RUB.addr = alloca double, align 8
  %AR.addr = alloca double, align 8
  %RUC.addr = alloca double, align 8
  %NUC.addr = alloca i32, align 4
  %ZRO = alloca double, align 8
  %result = alloca double, align 8
  store double %X, ptr %X.addr, align 8, !tbaa !62
  store double %H1, ptr %H1.addr, align 8, !tbaa !62
  store double %H2, ptr %H2.addr, align 8, !tbaa !62
  store double %H3, ptr %H3.addr, align 8, !tbaa !62
  store double %R23, ptr %R23.addr, align 8, !tbaa !62
  store double %RUA, ptr %RUA.addr, align 8, !tbaa !62
  store double %RUB, ptr %RUB.addr, align 8, !tbaa !62
  store double %AR, ptr %AR.addr, align 8, !tbaa !62
  store double %RUC, ptr %RUC.addr, align 8, !tbaa !62
  store i32 %NUC, ptr %NUC.addr, align 4, !tbaa !14
  call void @llvm.lifetime.start.p0(i64 8, ptr %ZRO) #11
  store double 0.000000e+00, ptr %ZRO, align 8, !tbaa !62
  call void @llvm.lifetime.start.p0(i64 8, ptr %result) #11
  store double 0.000000e+00, ptr %result, align 8, !tbaa !62
  %0 = load double, ptr %RUA.addr, align 8, !tbaa !62
  %1 = load double, ptr %X.addr, align 8, !tbaa !62
  %mul = fmul double %0, %1
  call void @_ZN8QuantLib12_GLOBAL__N_15SINCSEdRdS1_(double noundef %mul, ptr noundef nonnull align 8 dereferenceable(8) @_ZZN8QuantLib12_GLOBAL__N_16TVTMFNEdddddddddiE3R12, ptr noundef nonnull align 8 dereferenceable(8) @_ZZN8QuantLib12_GLOBAL__N_16TVTMFNEdddddddddiE3RR2)
  %2 = load double, ptr %RUB.addr, align 8, !tbaa !62
  %3 = load double, ptr %X.addr, align 8, !tbaa !62
  %mul1 = fmul double %2, %3
  call void @_ZN8QuantLib12_GLOBAL__N_15SINCSEdRdS1_(double noundef %mul1, ptr noundef nonnull align 8 dereferenceable(8) @_ZZN8QuantLib12_GLOBAL__N_16TVTMFNEdddddddddiE3R13, ptr noundef nonnull align 8 dereferenceable(8) @_ZZN8QuantLib12_GLOBAL__N_16TVTMFNEdddddddddiE3RR3)
  %4 = load double, ptr %RUA.addr, align 8, !tbaa !62
  %5 = call double @llvm.fabs.f64(double %4)
  %cmp = fcmp ogt double %5, 0.000000e+00
  br i1 %cmp, label %if.then, label %if.end

if.then:                                          ; preds = %entry
  %6 = load double, ptr %RUA.addr, align 8, !tbaa !62
  %7 = load i32, ptr %NUC.addr, align 4, !tbaa !14
  %8 = load double, ptr %H1.addr, align 8, !tbaa !62
  %9 = load double, ptr %H2.addr, align 8, !tbaa !62
  %10 = load double, ptr %H3.addr, align 8, !tbaa !62
  %11 = load double, ptr @_ZZN8QuantLib12_GLOBAL__N_16TVTMFNEdddddddddiE3R13, align 8, !tbaa !62
  %12 = load double, ptr %R23.addr, align 8, !tbaa !62
  %13 = load double, ptr @_ZZN8QuantLib12_GLOBAL__N_16TVTMFNEdddddddddiE3R12, align 8, !tbaa !62
  %14 = load double, ptr @_ZZN8QuantLib12_GLOBAL__N_16TVTMFNEdddddddddiE3RR2, align 8, !tbaa !62
  %call = call noundef double @_ZN8QuantLib12_GLOBAL__N_16PNTGNDEiddddddd(i32 noundef %7, double noundef %8, double noundef %9, double noundef %10, double noundef %11, double noundef %12, double noundef %13, double noundef %14)
  %15 = load double, ptr %result, align 8, !tbaa !62
  %16 = call double @llvm.fmuladd.f64(double %6, double %call, double %15)
  store double %16, ptr %result, align 8, !tbaa !62
  br label %if.end

if.end:                                           ; preds = %if.then, %entry
  %17 = load double, ptr %RUB.addr, align 8, !tbaa !62
  %18 = call double @llvm.fabs.f64(double %17)
  %cmp3 = fcmp ogt double %18, 0.000000e+00
  br i1 %cmp3, label %if.then4, label %if.end7

if.then4:                                         ; preds = %if.end
  %19 = load double, ptr %RUB.addr, align 8, !tbaa !62
  %20 = load i32, ptr %NUC.addr, align 4, !tbaa !14
  %21 = load double, ptr %H1.addr, align 8, !tbaa !62
  %22 = load double, ptr %H3.addr, align 8, !tbaa !62
  %23 = load double, ptr %H2.addr, align 8, !tbaa !62
  %24 = load double, ptr @_ZZN8QuantLib12_GLOBAL__N_16TVTMFNEdddddddddiE3R12, align 8, !tbaa !62
  %25 = load double, ptr %R23.addr, align 8, !tbaa !62
  %26 = load double, ptr @_ZZN8QuantLib12_GLOBAL__N_16TVTMFNEdddddddddiE3R13, align 8, !tbaa !62
  %27 = load double, ptr @_ZZN8QuantLib12_GLOBAL__N_16TVTMFNEdddddddddiE3RR3, align 8, !tbaa !62
  %call5 = call noundef double @_ZN8QuantLib12_GLOBAL__N_16PNTGNDEiddddddd(i32 noundef %20, double noundef %21, double noundef %22, double noundef %23, double noundef %24, double noundef %25, double noundef %26, double noundef %27)
  %28 = load double, ptr %result, align 8, !tbaa !62
  %29 = call double @llvm.fmuladd.f64(double %19, double %call5, double %28)
  store double %29, ptr %result, align 8, !tbaa !62
  br label %if.end7

if.end7:                                          ; preds = %if.then4, %if.end
  %30 = load i32, ptr %NUC.addr, align 4, !tbaa !14
  %cmp8 = icmp sgt i32 %30, 0
  br i1 %cmp8, label %if.then9, label %if.end13

if.then9:                                         ; preds = %if.end7
  %31 = load double, ptr %AR.addr, align 8, !tbaa !62
  %32 = load double, ptr %RUC.addr, align 8, !tbaa !62
  %33 = load double, ptr %X.addr, align 8, !tbaa !62
  %34 = call double @llvm.fmuladd.f64(double %32, double %33, double %31)
  call void @_ZN8QuantLib12_GLOBAL__N_15SINCSEdRdS1_(double noundef %34, ptr noundef nonnull align 8 dereferenceable(8) @_ZZN8QuantLib12_GLOBAL__N_16TVTMFNEdddddddddiE1R, ptr noundef nonnull align 8 dereferenceable(8) @_ZZN8QuantLib12_GLOBAL__N_16TVTMFNEdddddddddiE2RR)
  %35 = load double, ptr %RUC.addr, align 8, !tbaa !62
  %36 = load i32, ptr %NUC.addr, align 4, !tbaa !14
  %37 = load double, ptr %H2.addr, align 8, !tbaa !62
  %38 = load double, ptr %H3.addr, align 8, !tbaa !62
  %39 = load double, ptr %H1.addr, align 8, !tbaa !62
  %40 = load double, ptr @_ZZN8QuantLib12_GLOBAL__N_16TVTMFNEdddddddddiE1R, align 8, !tbaa !62
  %41 = load double, ptr @_ZZN8QuantLib12_GLOBAL__N_16TVTMFNEdddddddddiE2RR, align 8, !tbaa !62
  %call11 = call noundef double @_ZN8QuantLib12_GLOBAL__N_16PNTGNDEiddddddd(i32 noundef %36, double noundef %37, double noundef %38, double noundef %39, double noundef 0.000000e+00, double noundef 0.000000e+00, double noundef %40, double noundef %41)
  %42 = load double, ptr %result, align 8, !tbaa !62
  %neg = fneg double %35
  %43 = call double @llvm.fmuladd.f64(double %neg, double %call11, double %42)
  store double %43, ptr %result, align 8, !tbaa !62
  br label %if.end13

if.end13:                                         ; preds = %if.then9, %if.end7
  %44 = load double, ptr %result, align 8, !tbaa !62
  call void @llvm.lifetime.end.p0(i64 8, ptr %result) #11
  call void @llvm.lifetime.end.p0(i64 8, ptr %ZRO) #11
  ret double %44
}