; Function Attrs: mustprogress nofree nounwind willreturn memory(readwrite, argmem: write, inaccessiblemem: write) uwtable
define internal fastcc noundef double @_ZN8QuantLib12_GLOBAL__N_16TVTMFNEdddddddddi(double noundef %X, double noundef %H1, double noundef %H2, double noundef %H3, double noundef %R23, double noundef %RUA, double noundef %RUB, double noundef %AR, double noundef %RUC, i32 noundef %NUC) unnamed_addr #25 {
entry:
  %mul = fmul double %X, %RUA
  %0 = tail call double @llvm.fabs.f64(double %mul)
  %sub.i = fsub double 0x3FF921FB54442D18, %0
  %square.i = fmul double %sub.i, %sub.i
  %cmp.i = fcmp olt double %square.i, 5.000000e-05
  br i1 %cmp.i, label %if.then.i, label %if.else.i

if.then.i:                                        ; preds = %entry
  %div.i = fdiv double %square.i, 1.200000e+01
  %sub1.i = fsub double 1.000000e+00, %div.i
  %mul.i = fmul double %square.i, %sub1.i
  %div2.i = fmul double %mul.i, 5.000000e-01
  %sub3.i = fsub double 1.000000e+00, %div2.i
  %cmp.i.i = fcmp ogt double %mul, 0.000000e+00
  %1 = tail call double @llvm.fabs.f64(double %sub3.i)
  %fneg.i.i = fneg double %1
  %retval.0.i.i = select i1 %cmp.i.i, double %1, double %fneg.i.i
  %mul5.i = fmul double %square.i, 2.000000e+00
  %div6.i = fdiv double %mul5.i, 1.500000e+01
  %sub7.i = fsub double 1.000000e+00, %div6.i
  %mul8.i = fmul double %square.i, %sub7.i
  %div9.i = fdiv double %mul8.i, 3.000000e+00
  %sub10.i = fsub double 1.000000e+00, %div9.i
  %mul11.i = fmul double %square.i, %sub10.i
  br label %_ZN8QuantLib12_GLOBAL__N_15SINCSEdRdS1_.exit

if.else.i:                                        ; preds = %entry
  %call12.i = tail call double @sin(double noundef %mul) #30, !tbaa !108
  %neg.i = fneg double %call12.i
  %2 = tail call double @llvm.fmuladd.f64(double %neg.i, double %call12.i, double 1.000000e+00)
  br label %_ZN8QuantLib12_GLOBAL__N_15SINCSEdRdS1_.exit

_ZN8QuantLib12_GLOBAL__N_15SINCSEdRdS1_.exit:     ; preds = %if.then.i, %if.else.i
  %call12.sink.i = phi double [ %retval.0.i.i, %if.then.i ], [ %call12.i, %if.else.i ]
  %storemerge.i = phi double [ %mul11.i, %if.then.i ], [ %2, %if.else.i ]
  store double %call12.sink.i, ptr @_ZZN8QuantLib12_GLOBAL__N_16TVTMFNEdddddddddiE3R12, align 8
  %mul1 = fmul double %X, %RUB
  %3 = tail call double @llvm.fabs.f64(double %mul1)
  %sub.i21 = fsub double 0x3FF921FB54442D18, %3
  %square.i22 = fmul double %sub.i21, %sub.i21
  %cmp.i23 = fcmp olt double %square.i22, 5.000000e-05
  br i1 %cmp.i23, label %if.then.i29, label %if.else.i24

if.then.i29:                                      ; preds = %_ZN8QuantLib12_GLOBAL__N_15SINCSEdRdS1_.exit
  %div.i30 = fdiv double %square.i22, 1.200000e+01
  %sub1.i31 = fsub double 1.000000e+00, %div.i30
  %mul.i32 = fmul double %square.i22, %sub1.i31
  %div2.i33 = fmul double %mul.i32, 5.000000e-01
  %sub3.i34 = fsub double 1.000000e+00, %div2.i33
  %cmp.i.i35 = fcmp ogt double %mul1, 0.000000e+00
  %4 = tail call double @llvm.fabs.f64(double %sub3.i34)
  %fneg.i.i36 = fneg double %4
  %retval.0.i.i37 = select i1 %cmp.i.i35, double %4, double %fneg.i.i36
  %mul5.i38 = fmul double %square.i22, 2.000000e+00
  %div6.i39 = fdiv double %mul5.i38, 1.500000e+01
  %sub7.i40 = fsub double 1.000000e+00, %div6.i39
  %mul8.i41 = fmul double %square.i22, %sub7.i40
  %div9.i42 = fdiv double %mul8.i41, 3.000000e+00
  %sub10.i43 = fsub double 1.000000e+00, %div9.i42
  %mul11.i44 = fmul double %square.i22, %sub10.i43
  br label %_ZN8QuantLib12_GLOBAL__N_15SINCSEdRdS1_.exit45

if.else.i24:                                      ; preds = %_ZN8QuantLib12_GLOBAL__N_15SINCSEdRdS1_.exit
  %call12.i25 = tail call double @sin(double noundef %mul1) #30, !tbaa !108
  %neg.i26 = fneg double %call12.i25
  %5 = tail call double @llvm.fmuladd.f64(double %neg.i26, double %call12.i25, double 1.000000e+00)
  br label %_ZN8QuantLib12_GLOBAL__N_15SINCSEdRdS1_.exit45

_ZN8QuantLib12_GLOBAL__N_15SINCSEdRdS1_.exit45:   ; preds = %if.then.i29, %if.else.i24
  %call12.sink.i27 = phi double [ %retval.0.i.i37, %if.then.i29 ], [ %call12.i25, %if.else.i24 ]
  %storemerge.i28 = phi double [ %mul11.i44, %if.then.i29 ], [ %5, %if.else.i24 ]
  store double %call12.sink.i27, ptr @_ZZN8QuantLib12_GLOBAL__N_16TVTMFNEdddddddddiE3R13, align 8
  store double %storemerge.i28, ptr @_ZZN8QuantLib12_GLOBAL__N_16TVTMFNEdddddddddiE3RR3, align 8, !tbaa !107
  %cmp = fcmp ueq double %RUA, 0.000000e+00
  br i1 %cmp, label %if.end, label %if.then

if.then:                                          ; preds = %_ZN8QuantLib12_GLOBAL__N_15SINCSEdRdS1_.exit45
  %call = tail call fastcc noundef double @_ZN8QuantLib12_GLOBAL__N_16PNTGNDEiddddddd(i32 noundef %NUC, double noundef %H1, double noundef %H2, double noundef %H3, double noundef %call12.sink.i27, double noundef %R23, double noundef %call12.sink.i, double noundef %storemerge.i)
  %6 = tail call double @llvm.fmuladd.f64(double %RUA, double %call, double 0.000000e+00)
  br label %if.end

if.end:                                           ; preds = %if.then, %_ZN8QuantLib12_GLOBAL__N_15SINCSEdRdS1_.exit45
  %result.0 = phi double [ %6, %if.then ], [ 0.000000e+00, %_ZN8QuantLib12_GLOBAL__N_15SINCSEdRdS1_.exit45 ]
  %cmp3 = fcmp ueq double %RUB, 0.000000e+00
  br i1 %cmp3, label %if.end7, label %if.then4

if.then4:                                         ; preds = %if.end
  %7 = load double, ptr @_ZZN8QuantLib12_GLOBAL__N_16TVTMFNEdddddddddiE3R12, align 8, !tbaa !107
  %8 = load double, ptr @_ZZN8QuantLib12_GLOBAL__N_16TVTMFNEdddddddddiE3R13, align 8, !tbaa !107
  %9 = load double, ptr @_ZZN8QuantLib12_GLOBAL__N_16TVTMFNEdddddddddiE3RR3, align 8, !tbaa !107
  %call5 = tail call fastcc noundef double @_ZN8QuantLib12_GLOBAL__N_16PNTGNDEiddddddd(i32 noundef %NUC, double noundef %H1, double noundef %H3, double noundef %H2, double noundef %7, double noundef %R23, double noundef %8, double noundef %9)
  %10 = tail call double @llvm.fmuladd.f64(double %RUB, double %call5, double %result.0)
  br label %if.end7

if.end7:                                          ; preds = %if.then4, %if.end
  %result.1 = phi double [ %10, %if.then4 ], [ %result.0, %if.end ]
  %cmp8 = icmp sgt i32 %NUC, 0
  br i1 %cmp8, label %if.then9, label %if.end13

if.then9:                                         ; preds = %if.end7
  %11 = tail call double @llvm.fmuladd.f64(double %RUC, double %X, double %AR)
  %12 = tail call double @llvm.fabs.f64(double %11)
  %sub.i46 = fsub double 0x3FF921FB54442D18, %12
  %square.i47 = fmul double %sub.i46, %sub.i46
  %cmp.i48 = fcmp olt double %square.i47, 5.000000e-05
  br i1 %cmp.i48, label %if.then.i54, label %if.else.i49

if.then.i54:                                      ; preds = %if.then9
  %div.i55 = fdiv double %square.i47, 1.200000e+01
  %sub1.i56 = fsub double 1.000000e+00, %div.i55
  %mul.i57 = fmul double %square.i47, %sub1.i56
  %div2.i58 = fmul double %mul.i57, 5.000000e-01
  %sub3.i59 = fsub double 1.000000e+00, %div2.i58
  %cmp.i.i60 = fcmp ogt double %11, 0.000000e+00
  %13 = tail call double @llvm.fabs.f64(double %sub3.i59)
  %fneg.i.i61 = fneg double %13
  %retval.0.i.i62 = select i1 %cmp.i.i60, double %13, double %fneg.i.i61
  %mul5.i63 = fmul double %square.i47, 2.000000e+00
  %div6.i64 = fdiv double %mul5.i63, 1.500000e+01
  %sub7.i65 = fsub double 1.000000e+00, %div6.i64
  %mul8.i66 = fmul double %square.i47, %sub7.i65
  %div9.i67 = fdiv double %mul8.i66, 3.000000e+00
  %sub10.i68 = fsub double 1.000000e+00, %div9.i67
  %mul11.i69 = fmul double %square.i47, %sub10.i68
  br label %_ZN8QuantLib12_GLOBAL__N_15SINCSEdRdS1_.exit70

if.else.i49:                                      ; preds = %if.then9
  %call12.i50 = tail call double @sin(double noundef %11) #30, !tbaa !108
  %neg.i51 = fneg double %call12.i50
  %14 = tail call double @llvm.fmuladd.f64(double %neg.i51, double %call12.i50, double 1.000000e+00)
  br label %_ZN8QuantLib12_GLOBAL__N_15SINCSEdRdS1_.exit70

_ZN8QuantLib12_GLOBAL__N_15SINCSEdRdS1_.exit70:   ; preds = %if.then.i54, %if.else.i49
  %call12.sink.i52 = phi double [ %retval.0.i.i62, %if.then.i54 ], [ %call12.i50, %if.else.i49 ]
  %storemerge.i53 = phi double [ %mul11.i69, %if.then.i54 ], [ %14, %if.else.i49 ]
  %call11 = tail call fastcc noundef double @_ZN8QuantLib12_GLOBAL__N_16PNTGNDEiddddddd(i32 noundef %NUC, double noundef %H2, double noundef %H3, double noundef %H1, double noundef 0.000000e+00, double noundef 0.000000e+00, double noundef %call12.sink.i52, double noundef %storemerge.i53)
  %neg = fneg double %RUC
  %15 = tail call double @llvm.fmuladd.f64(double %neg, double %call11, double %result.1)
  br label %if.end13

if.end13:                                         ; preds = %_ZN8QuantLib12_GLOBAL__N_15SINCSEdRdS1_.exit70, %if.end7
  %result.2 = phi double [ %15, %_ZN8QuantLib12_GLOBAL__N_15SINCSEdRdS1_.exit70 ], [ %result.1, %if.end7 ]
  ret double %result.2
}